(lp0
F0.0
aF0.0
aF0.0
aF0.0
aF0.0
aF0.0
aF0.0
aF0.0
aF0.0
aF0.0
aF0.0
aF10.0
aF10.0
aF0.0
aF0.0
aF0.0
aF0.0
aF0.0
aF10.0
aF0.0
aF0.0
aF0.0
aF0.0
aF0.0
aF0.0
aF0.0
aF0.0
aF0.0
aF10.0
aF0.0
aF0.0
aF0.0
aF0.0
aF0.0
aF0.0
aF0.0
aF0.0
aF0.0
aF0.0
aF10.0
aF0.0
aF0.0
aF0.0
aF10.0
aF0.0
aF10.0
aF0.0
aF-5.0
aF0.0
aF0.0
aF0.0
aF0.0
aF0.0
aF-5.0
aF0.0
aF0.0
aF0.0
aF0.0
aF10.0
aF-5.0
aF0.0
aF0.0
aF0.0
aF0.0
aF0.0
aF0.0
aF0.0
aF0.0
aF10.0
aF0.0
aF10.0
aF10.0
aF0.0
aF0.0
aF10.0
aF0.0
aF0.0
aF10.0
aF0.0
aF10.0
aF10.0
aF0.0
aF0.0
aF0.0
aF10.0
aF0.0
aF0.0
aF0.0
aF0.0
aF0.0
aF0.0
aF0.0
aF0.0
aF0.0
aF0.0
aF0.0
aF10.0
aF0.0
aF0.0
aF0.0
aF0.0
aF0.0
aF0.0
aF0.0
aF0.0
aF0.0
aF0.0
aF0.0
aF0.0
aF0.0
aF0.0
aF0.0
aF0.0
aF0.0
aF0.0
aF0.0
aF0.0
aF0.0
aF0.0
aF0.0
aF-5.0
aF10.0
aF-10.0
aF0.0
aF0.0
aF0.0
aF0.0
aF0.0
aF0.0
aF0.0
aF10.0
aF0.0
aF0.0
aF0.0
aF10.0
aF0.0
aF0.0
aF0.0
aF0.0
aF0.0
aF0.0
aF0.0
aF0.0
aF0.0
aF0.0
aF0.0
aF0.0
aF-5.0
aF0.0
aF0.0
aF0.0
aF10.0
aF0.0
aF0.0
aF0.0
aF0.0
aF0.0
aF0.0
aF0.0
aF10.0
aF0.0
aF0.0
aF0.0
aF0.0
aF0.0
aF10.0
aF10.0
aF0.0
aF0.0
aF0.0
aF0.0
aF0.0
aF-5.0
aF0.0
aF0.0
aF0.0
aF0.0
aF0.0
aF0.0
aF0.0
aF0.0
aF0.0
aF10.0
aF0.0
aF10.0
aF10.0
aF10.0
aF0.0
aF0.0
aF0.0
aF0.0
aF0.0
aF0.0
aF0.0
aF-5.0
aF0.0
aF0.0
aF10.0
aF0.0
aF0.0
aF10.0
aF0.0
aF0.0
aF0.0
aF0.0
aF0.0
aF0.0
aF0.0
aF0.0
aF0.0
aF0.0
aF0.0
aF0.0
aF0.0
aF0.0
aF0.0
aF0.0
aF0.0
aF0.0
aF0.0
aF0.0
aF0.0
aF0.0
aF0.0
aF0.0
aF0.0
aF0.0
aF10.0
aF0.0
aF0.0
aF0.0
aF-10.0
aF0.0
aF0.0
aF0.0
aF0.0
aF0.0
aF0.0
aF0.0
aF10.0
aF5.0
aF0.0
aF-5.0
aF0.0
aF0.0
aF0.0
aF0.0
aF0.0
aF10.0
aF-10.0
aF10.0
aF-15.0
aF0.0
aF0.0
aF0.0
aF-5.0
aF0.0
aF0.0
aF0.0
aF0.0
aF0.0
aF0.0
aF0.0
aF0.0
aF0.0
aF10.0
aF-10.0
aF0.0
aF0.0
aF0.0
aF0.0
aF0.0
aF0.0
aF10.0
aF0.0
aF10.0
aF0.0
aF0.0
aF0.0
aF10.0
aF0.0
aF0.0
aF0.0
aF0.0
aF0.0
aF0.0
aF-5.0
aF10.0
aF10.0
aF0.0
aF0.0
aF0.0
aF0.0
aF10.0
aF-10.0
aF10.0
aF0.0
aF0.0
aF0.0
aF0.0
aF0.0
aF0.0
aF0.0
aF0.0
aF0.0
aF0.0
aF10.0
aF-10.0
aF10.0
aF0.0
aF10.0
aF-5.0
aF0.0
aF0.0
aF0.0
aF0.0
aF0.0
aF0.0
aF0.0
aF0.0
aF0.0
aF0.0
aF0.0
aF0.0
aF10.0
aF0.0
aF0.0
aF0.0
aF0.0
aF10.0
aF0.0
aF0.0
aF0.0
aF0.0
aF0.0
aF0.0
aF0.0
aF0.0
aF10.0
aF-5.0
aF0.0
aF0.0
aF0.0
aF0.0
aF0.0
aF0.0
aF0.0
aF0.0
aF0.0
aF0.0
aF0.0
aF0.0
aF0.0
aF10.0
aF0.0
aF0.0
aF10.0
aF0.0
aF0.0
aF0.0
aF0.0
aF0.0
aF0.0
aF10.0
aF-5.0
aF0.0
aF0.0
aF0.0
aF10.0
aF-10.0
aF10.0
aF10.0
aF-5.0
aF0.0
aF0.0
aF0.0
aF-5.0
aF0.0
aF0.0
aF0.0
aF0.0
aF10.0
aF-5.0
aF0.0
aF0.0
aF0.0
aF0.0
aF0.0
aF0.0
aF10.0
aF-5.0
aF0.0
aF0.0
aF10.0
aF-10.0
aF0.0
aF0.0
aF0.0
aF10.0
aF-5.0
aF0.0
aF0.0
aF0.0
aF10.0
aF0.0
aF10.0
aF0.0
aF0.0
aF0.0
aF0.0
aF0.0
aF0.0
aF0.0
aF10.0
aF0.0
aF0.0
aF0.0
aF0.0
aF0.0
aF0.0
aF0.0
aF0.0
aF0.0
aF0.0
aF0.0
aF0.0
aF0.0
aF0.0
aF0.0
aF10.0
aF0.0
aF0.0
aF0.0
aF0.0
aF0.0
aF0.0
aF0.0
aF0.0
aF0.0
aF10.0
aF10.0
aF0.0
aF0.0
aF0.0
aF0.0
aF0.0
aF0.0
aF0.0
aF0.0
aF0.0
aF0.0
aF0.0
aF0.0
aF0.0
aF0.0
aF0.0
aF0.0
aF0.0
aF0.0
aF0.0
aF10.0
aF-5.0
aF0.0
aF0.0
aF0.0
aF0.0
aF0.0
aF0.0
aF0.0
aF0.0
aF0.0
aF0.0
aF0.0
aF0.0
aF0.0
aF0.0
aF0.0
aF0.0
aF0.0
aF10.0
aF-10.0
aF0.0
aF0.0
aF0.0
aF0.0
aF0.0
aF0.0
aF10.0
aF10.0
aF-10.0
aF0.0
aF0.0
aF10.0
aF0.0
aF0.0
aF0.0
aF0.0
aF0.0
aF0.0
aF0.0
aF0.0
aF0.0
aF0.0
aF10.0
aF0.0
aF10.0
aF-5.0
aF0.0
aF0.0
aF0.0
aF0.0
aF0.0
aF0.0
aF10.0
aF-10.0
aF0.0
aF0.0
aF0.0
aF10.0
aF-5.0
aF0.0
aF0.0
aF10.0
aF0.0
aF0.0
aF10.0
aF-10.0
aF0.0
aF0.0
aF0.0
aF0.0
aF10.0
aF-15.0
aF-5.0
aF10.0
aF0.0
aF0.0
aF0.0
aF0.0
aF-5.0
aF0.0
aF10.0
aF-5.0
aF10.0
aF0.0
aF0.0
aF10.0
aF-15.0
aF0.0
aF0.0
aF0.0
aF0.0
aF0.0
aF0.0
aF0.0
aF0.0
aF0.0
aF0.0
aF-10.0
aF0.0
aF0.0
aF0.0
aF0.0
aF10.0
aF-5.0
aF-10.0
aF10.0
aF-10.0
aF0.0
aF0.0
aF0.0
aF0.0
aF10.0
aF0.0
aF10.0
aF0.0
aF0.0
aF0.0
aF0.0
aF10.0
aF-5.0
aF0.0
aF0.0
aF0.0
aF10.0
aF0.0
aF-5.0
aF0.0
aF10.0
aF-10.0
aF-5.0
aF0.0
aF0.0
aF0.0
aF0.0
aF0.0
aF0.0
aF0.0
aF10.0
aF0.0
a.