(lp0
I32
aI32
aI32
aI32
aI32
aI32
aI32
aI32
aI32
aI32
aI32
aI20
aI14
aI32
aI32
aI32
aI32
aI32
aI23
aI32
aI32
aI32
aI32
aI32
aI32
aI32
aI32
aI32
aI31
aI32
aI32
aI32
aI32
aI32
aI32
aI32
aI32
aI32
aI32
aI22
aI32
aI32
aI32
aI18
aI32
aI21
aI32
aI32
aI32
aI32
aI32
aI32
aI32
aI32
aI32
aI32
aI32
aI32
aI20
aI32
aI32
aI32
aI32
aI32
aI32
aI32
aI32
aI32
aI20
aI32
aI15
aI25
aI32
aI32
aI30
aI32
aI32
aI32
aI32
aI22
aI28
aI32
aI32
aI32
aI13
aI32
aI32
aI32
aI32
aI32
aI32
aI32
aI32
aI32
aI32
aI32
aI29
aI32
aI32
aI32
aI32
aI32
aI32
aI32
aI32
aI32
aI32
aI32
aI32
aI32
aI32
aI32
aI32
aI32
aI32
aI32
aI32
aI32
aI32
aI32
aI32
aI22
aI32
aI32
aI32
aI32
aI32
aI32
aI32
aI32
aI13
aI32
aI32
aI32
aI30
aI32
aI32
aI32
aI32
aI32
aI32
aI32
aI32
aI32
aI32
aI32
aI32
aI32
aI32
aI32
aI32
aI25
aI32
aI32
aI32
aI32
aI32
aI32
aI32
aI27
aI32
aI32
aI32
aI32
aI32
aI13
aI30
aI32
aI32
aI32
aI32
aI32
aI32
aI32
aI32
aI32
aI32
aI32
aI32
aI32
aI32
aI32
aI15
aI32
aI30
aI24
aI31
aI32
aI32
aI32
aI32
aI32
aI32
aI32
aI32
aI32
aI32
aI30
aI32
aI32
aI30
aI32
aI32
aI32
aI32
aI32
aI32
aI32
aI32
aI32
aI32
aI32
aI32
aI32
aI32
aI32
aI32
aI32
aI32
aI32
aI32
aI32
aI32
aI32
aI32
aI32
aI32
aI25
aI32
aI32
aI32
aI32
aI32
aI32
aI32
aI32
aI32
aI32
aI32
aI21
aI17
aI32
aI32
aI32
aI32
aI32
aI32
aI32
aI31
aI32
aI26
aI32
aI32
aI32
aI32
aI32
aI32
aI32
aI32
aI32
aI32
aI32
aI32
aI32
aI32
aI27
aI32
aI32
aI32
aI32
aI32
aI32
aI32
aI29
aI32
aI19
aI32
aI32
aI32
aI30
aI32
aI32
aI32
aI32
aI32
aI32
aI32
aI19
aI26
aI32
aI32
aI32
aI32
aI13
aI32
aI31
aI32
aI32
aI32
aI32
aI32
aI32
aI32
aI32
aI32
aI32
aI16
aI32
aI31
aI32
aI20
aI32
aI32
aI32
aI32
aI32
aI32
aI32
aI32
aI32
aI32
aI32
aI32
aI32
aI29
aI32
aI32
aI32
aI32
aI19
aI32
aI32
aI32
aI32
aI32
aI32
aI32
aI32
aI25
aI32
aI32
aI32
aI32
aI32
aI32
aI32
aI32
aI32
aI32
aI32
aI32
aI32
aI32
aI32
aI32
aI32
aI21
aI32
aI32
aI32
aI32
aI32
aI32
aI14
aI32
aI32
aI32
aI32
aI24
aI32
aI30
aI25
aI32
aI32
aI32
aI32
aI32
aI32
aI32
aI32
aI32
aI27
aI32
aI32
aI32
aI32
aI32
aI32
aI32
aI13
aI32
aI32
aI32
aI22
aI32
aI32
aI32
aI32
aI15
aI32
aI32
aI32
aI32
aI22
aI32
aI32
aI32
aI32
aI32
aI32
aI32
aI32
aI32
aI23
aI32
aI32
aI32
aI32
aI32
aI32
aI32
aI32
aI32
aI32
aI32
aI32
aI32
aI32
aI32
aI15
aI32
aI32
aI32
aI32
aI32
aI32
aI32
aI32
aI32
aI24
aI27
aI32
aI32
aI32
aI32
aI32
aI32
aI32
aI32
aI32
aI32
aI32
aI32
aI32
aI32
aI32
aI32
aI32
aI32
aI32
aI26
aI32
aI32
aI32
aI32
aI32
aI32
aI32
aI32
aI32
aI32
aI32
aI32
aI32
aI32
aI32
aI32
aI32
aI32
aI20
aI32
aI32
aI32
aI32
aI32
aI32
aI32
aI20
aI23
aI32
aI32
aI32
aI26
aI32
aI32
aI32
aI32
aI32
aI32
aI32
aI32
aI32
aI32
aI22
aI32
aI27
aI32
aI32
aI32
aI32
aI32
aI32
aI32
aI20
aI32
aI32
aI32
aI32
aI29
aI32
aI32
aI32
aI18
aI32
aI32
aI23
aI32
aI32
aI32
aI32
aI32
aI21
aI32
aI32
aI30
aI32
aI32
aI32
aI32
aI32
aI32
aI25
aI32
aI28
aI32
aI32
aI17
aI32
aI32
aI32
aI32
aI32
aI32
aI32
aI32
aI32
aI32
aI32
aI32
aI32
aI32
aI32
aI32
aI22
aI32
aI32
aI31
aI32
aI32
aI32
aI32
aI32
aI20
aI32
aI21
aI32
aI32
aI32
aI32
aI18
aI32
aI32
aI32
aI32
aI15
aI32
aI32
aI32
aI16
aI32
aI32
aI32
aI32
aI32
aI32
aI32
aI32
aI32
aI22
aI32
a.